; Function Attrs: nounwind uwtable
define void @Res_SimPrintNodePatterns(ptr noundef readonly captures(none) %0, ptr noundef readnone captures(none) %1) local_unnamed_addr #4 {
  %3 = getelementptr inbounds nuw i8, ptr %0, i64 48
  %4 = load ptr, ptr %3, align 8, !tbaa !26
  %5 = load ptr, ptr %0, align 8, !tbaa !36
  %6 = getelementptr i8, ptr %5, i64 48
  %.val4 = load ptr, ptr %6, align 8, !tbaa !53
  %7 = getelementptr i8, ptr %.val4, i64 8
  %.val4.val = load ptr, ptr %7, align 8, !tbaa !25
  %8 = getelementptr inbounds nuw i8, ptr %.val4.val, i64 8
  %9 = load ptr, ptr %8, align 8, !tbaa !19
  %10 = getelementptr inbounds nuw i8, ptr %9, i64 16
  %11 = load i32, ptr %10, align 8, !tbaa !62
  %12 = getelementptr i8, ptr %4, i64 8
  %.val = load ptr, ptr %12, align 8, !tbaa !25
  %13 = sext i32 %11 to i64
  %14 = getelementptr inbounds ptr, ptr %.val, i64 %13
  %15 = load ptr, ptr %14, align 8, !tbaa !19
  %16 = load ptr, ptr @stdout, align 8, !tbaa !104
  %17 = getelementptr inbounds nuw i8, ptr %0, i64 24
  %18 = load i32, ptr %17, align 8, !tbaa !13
  tail call void @Extra_PrintBinary(ptr noundef %16, ptr noundef %15, i32 noundef %18) #15
  %putchar = tail call i32 @putchar(i32 10)
  ret void
}